                              1 ;--------------------------------------------------------
                              2 ; File Created by SDCC : free open source ANSI-C Compiler
                              3 ; Version 3.6.8 #9946 (Linux)
                              4 ;--------------------------------------------------------
                              5 	.module jdvapi_sync
                              6 	.optsdcc -mz80
                              7 	
                              8 ;--------------------------------------------------------
                              9 ; Public variables in this module
                             10 ;--------------------------------------------------------
                             11 	.globl _scan
                             12 	.globl _overscanH
                             13 	.globl _bank7_4000
                             14 	.globl _bank6_4000
                             15 	.globl _bank5_4000
                             16 	.globl _bank4_4000
                             17 	.globl _bank7_C000
                             18 	.globl _bank0123
                             19 	.globl _calque4C00
                             20 	.globl _calque4000
                             21 	.globl _calque8000
                             22 	.globl _calqueC000
                             23 	.globl _halt
                             24 	.globl _handle_raster
                             25 	.globl _raster
                             26 	.globl _raster_handler
                             27 	.globl _callback
                             28 	.globl _raster_halt
                             29 	.globl _vsync
                             30 	.globl _aFunction
                             31 	.globl _callback_counter
                             32 ;--------------------------------------------------------
                             33 ; special function registers
                             34 ;--------------------------------------------------------
                             35 ;--------------------------------------------------------
                             36 ; ram data
                             37 ;--------------------------------------------------------
                             38 	.area _DATA
                             39 ;--------------------------------------------------------
                             40 ; ram data
                             41 ;--------------------------------------------------------
                             42 	.area _INITIALIZED
   0000                      43 _callback_counter::
   0000                      44 	.ds 2
   0002                      45 _aFunction::
   0002                      46 	.ds 2
                             47 ;--------------------------------------------------------
                             48 ; absolute external ram data
                             49 ;--------------------------------------------------------
                             50 	.area _DABS (ABS)
                             51 ;--------------------------------------------------------
                             52 ; global & static initialisations
                             53 ;--------------------------------------------------------
                             54 	.area _HOME
                             55 	.area _GSINIT
                             56 	.area _GSFINAL
                             57 	.area _GSINIT
                             58 ;--------------------------------------------------------
                             59 ; Home
                             60 ;--------------------------------------------------------
                             61 	.area _HOME
                             62 	.area _HOME
                             63 ;--------------------------------------------------------
                             64 ; code
                             65 ;--------------------------------------------------------
                             66 	.area _CODE
                             67 ;src/jdvapi_sync.c:4: void vsync()
                             68 ;	---------------------------------
                             69 ; Function vsync
                             70 ; ---------------------------------
   0000                      71 _vsync::
                             72 ;src/jdvapi_sync.c:14: __endasm;
   0000 06 F5         [ 7]   73 	ld	b,#0xf5 ;; PPI port B input
   0002                      74 	    _wait_vsync:
   0002 ED 78         [12]   75 	in	a,(c) ;; [4] read PPI port B input
                             76 ;;	(bit 0 = "1" if vsync is active,
                             77 ;;	or bit 0 = "0" if vsync is in-active)
   0004 1F            [ 4]   78 	rra	;; [1] put bit 0 into carry flag
   0005 D2r02r00      [10]   79 	jp	nc,_wait_vsync ;; [3] if carry not set, loop, otherwise continue
                             80 ;src/jdvapi_sync.c:15: callback_counter=0;
   0008 21 00 00      [10]   81 	ld	hl, #0x0000
   000B 22r00r00      [16]   82 	ld	(_callback_counter), hl
   000E C9            [10]   83 	ret
                             84 ;src/jdvapi_sync.c:18: void raster_halt()
                             85 ;	---------------------------------
                             86 ; Function raster_halt
                             87 ; ---------------------------------
   000F                      88 _raster_halt::
                             89 ;src/jdvapi_sync.c:26: __endasm;
   000F F3            [ 4]   90 	di
   0010 21 FB C9      [10]   91 	LD	HL,#0xC9FB ;; deux instructions : EI RET
   0013 22 38 00      [16]   92 	LD	(#0x38),HL
   0016 FB            [ 4]   93 	ei
   0017 C9            [10]   94 	ret
                             95 ;src/jdvapi_sync.c:46: void callback(unsigned char counter){
                             96 ;	---------------------------------
                             97 ; Function callback
                             98 ; ---------------------------------
   0018                      99 _callback::
                            100 ;src/jdvapi_sync.c:50: __endasm;
   0018 CD 00 00      [17]  101 	call	0
   001B C9            [10]  102 	ret
                            103 ;src/jdvapi_sync.c:55: void raster_handler()
                            104 ;	---------------------------------
                            105 ; Function raster_handler
                            106 ; ---------------------------------
   001C                     107 _raster_handler::
                            108 ;src/jdvapi_sync.c:74: __endasm;
                            109 ;;	backup Z80 state
   001C F5            [11]  110 	push	af
   001D C5            [11]  111 	push	bc
   001E D5            [11]  112 	push	de
   001F E5            [11]  113 	push	hl
   0020 DD E5         [15]  114 	push	ix
   0022 FD E5         [15]  115 	push	iy
   0024 D9            [ 4]  116 	exx
   0025 08            [ 4]  117 	ex	af, af' ; '
   0026 F5            [11]  118 	push	af
   0027 C5            [11]  119 	push	bc
   0028 D5            [11]  120 	push	de
   0029 E5            [11]  121 	push	hl
                            122 ;;	here we do custom code..
                            123 ;src/jdvapi_sync.c:76: callback_counter=(callback_counter+1)%6;
   002A 2Ar00r00      [16]  124 	ld	hl, (_callback_counter)
   002D 23            [ 6]  125 	inc	hl
   002E 01 06 00      [10]  126 	ld	bc, #0x0006
   0031 C5            [11]  127 	push	bc
   0032 E5            [11]  128 	push	hl
   0033 CDr00r00      [17]  129 	call	__moduint
   0036 F1            [10]  130 	pop	af
   0037 F1            [10]  131 	pop	af
   0038 22r00r00      [16]  132 	ld	(_callback_counter), hl
                            133 ;src/jdvapi_sync.c:77: aFunction(callback_counter);
   003B 21r00r00      [10]  134 	ld	hl,#_callback_counter + 0
   003E 46            [ 7]  135 	ld	b, (hl)
   003F C5            [11]  136 	push	bc
   0040 33            [ 6]  137 	inc	sp
   0041 2Ar02r00      [16]  138 	ld	hl, (_aFunction)
   0044 CDr00r00      [17]  139 	call	___sdcc_call_hl
   0047 33            [ 6]  140 	inc	sp
                            141 ;src/jdvapi_sync.c:96: __endasm;
                            142 ;;	restore Z80 state
   0048 E1            [10]  143 	pop	hl
   0049 D1            [10]  144 	pop	de
   004A C1            [10]  145 	pop	bc
   004B F1            [10]  146 	pop	af
   004C 08            [ 4]  147 	ex	af, af' ; '
   004D D9            [ 4]  148 	exx
   004E FD E1         [14]  149 	pop	iy
   0050 DD E1         [14]  150 	pop	ix
   0052 E1            [10]  151 	pop	hl
   0053 D1            [10]  152 	pop	de
   0054 C1            [10]  153 	pop	bc
   0055 F1            [10]  154 	pop	af
   0056 FB            [ 4]  155 	ei
   0057 C9            [10]  156 	ret
   0058 C9            [10]  157 	ret
                            158 ;src/jdvapi_sync.c:100: void raster()
                            159 ;	---------------------------------
                            160 ; Function raster
                            161 ; ---------------------------------
   0059                     162 _raster::
                            163 ;src/jdvapi_sync.c:109: __endasm;
   0059 F3            [ 4]  164 	di
   005A FD 21 39 00   [14]  165 	ld	iy,#0x39
   005E FD 36 00r1C   [19]  166 	ld	0 (iy),#<(_raster_handler)
   0062 FD 36 01s00   [19]  167 	ld	1 (iy),#>(_raster_handler)
   0066 FB            [ 4]  168 	ei
   0067 C9            [10]  169 	ret
                            170 ;src/jdvapi_sync.c:144: void handle_raster(MyFunctionReturningVoid callback) {
                            171 ;	---------------------------------
                            172 ; Function handle_raster
                            173 ; ---------------------------------
   0068                     174 _handle_raster::
                            175 ;src/jdvapi_sync.c:146: aFunction=callback;
   0068 21 02 00      [10]  176 	ld	hl, #2+0
   006B 39            [11]  177 	add	hl, sp
   006C 7E            [ 7]  178 	ld	a, (hl)
   006D 32r02r00      [13]  179 	ld	(#_aFunction + 0),a
   0070 21 03 00      [10]  180 	ld	hl, #2+1
   0073 39            [11]  181 	add	hl, sp
   0074 7E            [ 7]  182 	ld	a, (hl)
   0075 32r03r00      [13]  183 	ld	(#_aFunction + 1),a
   0078 C9            [10]  184 	ret
                            185 ;src/jdvapi_sync.c:149: void halt()
                            186 ;	---------------------------------
                            187 ; Function halt
                            188 ; ---------------------------------
   0079                     189 _halt::
                            190 ;src/jdvapi_sync.c:153: __endasm;
   0079 76            [ 4]  191 	halt
   007A C9            [10]  192 	ret
                            193 ;src/jdvapi_sync.c:156: void calqueC000()
                            194 ;	---------------------------------
                            195 ; Function calqueC000
                            196 ; ---------------------------------
   007B                     197 _calqueC000::
                            198 ;src/jdvapi_sync.c:163: __endasm;
   007B 01 0C BC      [10]  199 	ld	bc,#0xBC00+12 ; On met la valeur 48 dans
   007E ED 49         [12]  200 	out	(c),c ; le registre 12 du CRTC
   0080 01 30 BD      [10]  201 	ld	bc,#0xBD00+48
   0083 ED 49         [12]  202 	out	(c),c
   0085 C9            [10]  203 	ret
                            204 ;src/jdvapi_sync.c:166: void calque8000()
                            205 ;	---------------------------------
                            206 ; Function calque8000
                            207 ; ---------------------------------
   0086                     208 _calque8000::
                            209 ;src/jdvapi_sync.c:173: __endasm;
   0086 01 0C BC      [10]  210 	ld	bc,#0xBC00+12 ; On met la valeur 32 dans
   0089 ED 49         [12]  211 	out	(c),c ; le registre 12 du CRTC
   008B 01 20 BD      [10]  212 	ld	bc,#0xBD00+32
   008E ED 49         [12]  213 	out	(c),c
   0090 C9            [10]  214 	ret
                            215 ;src/jdvapi_sync.c:176: void calque4000()
                            216 ;	---------------------------------
                            217 ; Function calque4000
                            218 ; ---------------------------------
   0091                     219 _calque4000::
                            220 ;src/jdvapi_sync.c:183: __endasm;
   0091 01 0C BC      [10]  221 	ld	bc,#0xBC00+12 ; On met la valeur 16 dans
   0094 ED 49         [12]  222 	out	(c),c ; le registre 12 du CRTC
   0096 01 10 BD      [10]  223 	ld	bc,#0xBD00+16
   0099 ED 49         [12]  224 	out	(c),c
   009B C9            [10]  225 	ret
                            226 ;src/jdvapi_sync.c:186: void calque4C00()
                            227 ;	---------------------------------
                            228 ; Function calque4C00
                            229 ; ---------------------------------
   009C                     230 _calque4C00::
                            231 ;src/jdvapi_sync.c:193: __endasm;
   009C 01 0C BC      [10]  232 	ld	bc,#0xBC00+12 ; On met la valeur 28 dans
   009F ED 49         [12]  233 	out	(c),c ; le registre 12 du CRTC
   00A1 01 1C BD      [10]  234 	ld	bc,#0xBD00+28
   00A4 ED 49         [12]  235 	out	(c),c
   00A6 C9            [10]  236 	ret
                            237 ;src/jdvapi_sync.c:196: void bank0123()
                            238 ;	---------------------------------
                            239 ; Function bank0123
                            240 ; ---------------------------------
   00A7                     241 _bank0123::
                            242 ;src/jdvapi_sync.c:201: __endasm;
   00A7 01 C0 7F      [10]  243 	ld	bc,#0x7FC0+0 ; RAM rétablie
   00AA ED 49         [12]  244 	out	(c),c
   00AC C9            [10]  245 	ret
                            246 ;src/jdvapi_sync.c:204: void bank7_C000()
                            247 ;	---------------------------------
                            248 ; Function bank7_C000
                            249 ; ---------------------------------
   00AD                     250 _bank7_C000::
                            251 ;src/jdvapi_sync.c:209: __endasm;
   00AD 01 C1 7F      [10]  252 	ld	bc,#0x7FC0+1 ; RAM_7 sur &C000-&FFFF
   00B0 ED 49         [12]  253 	out	(c),c
   00B2 C9            [10]  254 	ret
                            255 ;src/jdvapi_sync.c:212: void bank4_4000()
                            256 ;	---------------------------------
                            257 ; Function bank4_4000
                            258 ; ---------------------------------
   00B3                     259 _bank4_4000::
                            260 ;src/jdvapi_sync.c:217: __endasm;
   00B3 01 C4 7F      [10]  261 	ld	bc,#0x7FC0+4 ; RAM_4 sur &4000-&7FFF
   00B6 ED 49         [12]  262 	out	(c),c
   00B8 C9            [10]  263 	ret
                            264 ;src/jdvapi_sync.c:220: void bank5_4000()
                            265 ;	---------------------------------
                            266 ; Function bank5_4000
                            267 ; ---------------------------------
   00B9                     268 _bank5_4000::
                            269 ;src/jdvapi_sync.c:225: __endasm;
   00B9 01 C5 7F      [10]  270 	ld	bc,#0x7FC0+5 ; RAM_5 sur &4000-&7FFF
   00BC ED 49         [12]  271 	out	(c),c
   00BE C9            [10]  272 	ret
                            273 ;src/jdvapi_sync.c:228: void bank6_4000()
                            274 ;	---------------------------------
                            275 ; Function bank6_4000
                            276 ; ---------------------------------
   00BF                     277 _bank6_4000::
                            278 ;src/jdvapi_sync.c:233: __endasm;
   00BF 01 C6 7F      [10]  279 	ld	bc,#0x7FC0+6 ; RAM_6 sur &4000-&7FFF
   00C2 ED 49         [12]  280 	out	(c),c
   00C4 C9            [10]  281 	ret
                            282 ;src/jdvapi_sync.c:236: void bank7_4000()
                            283 ;	---------------------------------
                            284 ; Function bank7_4000
                            285 ; ---------------------------------
   00C5                     286 _bank7_4000::
                            287 ;src/jdvapi_sync.c:241: __endasm;
   00C5 01 C7 7F      [10]  288 	ld	bc,#0x7FC0+7 ; RAM_7 sur &4000-&7FFF
   00C8 ED 49         [12]  289 	out	(c),c
   00CA C9            [10]  290 	ret
                            291 ;src/jdvapi_sync.c:278: void overscanH()
                            292 ;	---------------------------------
                            293 ; Function overscanH
                            294 ; ---------------------------------
   00CB                     295 _overscanH::
                            296 ;src/jdvapi_sync.c:298: __endasm;
   00CB 01 01 BC      [10]  297 	ld	bc,#0xBC00+1 ; On met la valeur 48 dans
   00CE ED 49         [12]  298 	out	(c),c ; le registre 1 du CRTC -- RHdisp
   00D0 01 30 BD      [10]  299 	ld	bc,#0xBD00+48
   00D3 ED 49         [12]  300 	out	(c),c
   00D5 01 02 BC      [10]  301 	ld	bc,#0xBC00+2 ; On met la valeur 50 dans
   00D8 ED 49         [12]  302 	out	(c),c ; le registre 2 du CRTC -- RHsyncpos
   00DA 01 32 BD      [10]  303 	ld	bc,#0xBD00+50
   00DD ED 49         [12]  304 	out	(c),c
   00DF 01 06 BC      [10]  305 	ld	bc,#0xBC00+6 ; On remet la valeur 25 dans
   00E2 ED 49         [12]  306 	out	(c),c ; le registre 6 du CRTC -- RVdisp
   00E4 01 15 BD      [10]  307 	ld	bc,#0xBD00+21
   00E7 ED 49         [12]  308 	out	(c),c
   00E9 01 07 BC      [10]  309 	ld	bc,#0xBC00+7 ; On remet la valeur 43 dans
   00EC ED 49         [12]  310 	out	(c),c ; le registre 7 du CRTC -- RVsyncpos
   00EE 01 1D BD      [10]  311 	ld	bc,#0xBD00+29
   00F1 ED 49         [12]  312 	out	(c),c
   00F3 C9            [10]  313 	ret
                            314 ;src/jdvapi_sync.c:324: void scan()
                            315 ;	---------------------------------
                            316 ; Function scan
                            317 ; ---------------------------------
   00F4                     318 _scan::
                            319 ;src/jdvapi_sync.c:343: __endasm;
   00F4 01 01 BC      [10]  320 	ld	bc,#0xBC00+1 ; On remet la valeur 40 dans
   00F7 ED 49         [12]  321 	out	(c),c ; le registre 1 du CRTC -- RHdisp
   00F9 01 28 BD      [10]  322 	ld	bc,#0xBD00+40
   00FC ED 49         [12]  323 	out	(c),c
   00FE 01 02 BC      [10]  324 	ld	bc,#0xBC00+2 ; On remet la valeur 46 dans
   0101 ED 49         [12]  325 	out	(c),c ; le registre 2 du CRTC -- RHsyncpos
   0103 01 2E BD      [10]  326 	ld	bc,#0xBD00+46
   0106 ED 49         [12]  327 	out	(c),c
   0108 01 06 BC      [10]  328 	ld	bc,#0xBC00+6 ; On remet la valeur 25 dans
   010B ED 49         [12]  329 	out	(c),c ; le registre 6 du CRTC -- RVdisp
   010D 01 19 BD      [10]  330 	ld	bc,#0xBD00+25
   0110 ED 49         [12]  331 	out	(c),c
   0112 01 07 BC      [10]  332 	ld	bc,#0xBC00+7 ; On remet la valeur 30 dans
   0115 ED 49         [12]  333 	out	(c),c ; le registre 7 du CRTC -- RVsyncpos
   0117 01 1E BD      [10]  334 	ld	bc,#0xBD00+30
   011A ED 49         [12]  335 	out	(c),c
   011C C9            [10]  336 	ret
                            337 	.area _CODE
                            338 	.area _INITIALIZER
   0000                     339 __xinit__callback_counter:
   0000 00 00               340 	.dw #0x0000
   0002                     341 __xinit__aFunction:
   0002r18r00               342 	.dw _callback
                            343 	.area _CABS (ABS)
