                              1 ;--------------------------------------------------------
                              2 ; File Created by SDCC : free open source ANSI-C Compiler
                              3 ; Version 3.6.8 #9946 (Linux)
                              4 ;--------------------------------------------------------
                              5 	.module main
                              6 	.optsdcc -mz80
                              7 	
                              8 ;--------------------------------------------------------
                              9 ; Public variables in this module
                             10 ;--------------------------------------------------------
                             11 	.globl _main
                             12 	.globl _myInterruptHandler
                             13 	.globl _crtc
                             14 	.globl _bank7_C000
                             15 	.globl _bank0123
                             16 	.globl _calque8000
                             17 	.globl _calqueC000
                             18 	.globl _akp_musicPlay
                             19 	.globl _akp_musicInit
                             20 	.globl _scroll_hard
                             21 	.globl _rupture
                             22 	.globl _restoreVBL
                             23 	.globl _killVBL
                             24 	.globl _cpct_getScreenPtr
                             25 	.globl _cpct_setVideoMemoryOffset
                             26 	.globl _cpct_setVideoMemoryPage
                             27 	.globl _cpct_setPALColour
                             28 	.globl _cpct_setPalette
                             29 	.globl _cpct_waitVSYNC
                             30 	.globl _cpct_setVideoMode
                             31 	.globl _cpct_hflipSpriteM0
                             32 	.globl _cpct_drawSpriteMasked
                             33 	.globl _cpct_drawSprite
                             34 	.globl _cpct_isAnyKeyPressed_f
                             35 	.globl _cpct_scanKeyboard_f
                             36 	.globl _cpct_setStackLocation
                             37 	.globl _cpct_memcpy
                             38 	.globl _cpct_memset_f64
                             39 	.globl _cpct_disableFirmware
                             40 	.globl _intCounter
                             41 	.globl _screen_plot_address
                             42 	.globl _screen_location
                             43 	.globl _g_items_0
                             44 ;--------------------------------------------------------
                             45 ; special function registers
                             46 ;--------------------------------------------------------
                             47 ;--------------------------------------------------------
                             48 ; ram data
                             49 ;--------------------------------------------------------
                             50 	.area _DATA
   0000                      51 _screen_location::
   0000                      52 	.ds 2
   0002                      53 _screen_plot_address::
   0002                      54 	.ds 2
                             55 ;--------------------------------------------------------
                             56 ; ram data
                             57 ;--------------------------------------------------------
                             58 	.area _INITIALIZED
   0000                      59 _intCounter::
   0000                      60 	.ds 1
                             61 ;--------------------------------------------------------
                             62 ; absolute external ram data
                             63 ;--------------------------------------------------------
                             64 	.area _DABS (ABS)
                             65 ;--------------------------------------------------------
                             66 ; global & static initialisations
                             67 ;--------------------------------------------------------
                             68 	.area _HOME
                             69 	.area _GSINIT
                             70 	.area _GSFINAL
                             71 	.area _GSINIT
                             72 ;--------------------------------------------------------
                             73 ; Home
                             74 ;--------------------------------------------------------
                             75 	.area _HOME
                             76 	.area _HOME
                             77 ;--------------------------------------------------------
                             78 ; code
                             79 ;--------------------------------------------------------
                             80 	.area _CODE
                             81 ;src/main.c:45: void crtc(u8* R12R13) {
                             82 ;	---------------------------------
                             83 ; Function crtc
                             84 ; ---------------------------------
   0000                      85 _crtc::
                             86 ;src/main.c:62: __endasm;
   0000 DD E5         [15]   87 	push	ix
   0002 DD 21 00 00   [14]   88 	ld	ix,#0
   0006 DD 39         [15]   89 	add	ix,sp
   0008 DD 66 05      [19]   90 	ld	h, 5 (ix)
   000B DD 6E 04      [19]   91 	ld	l, 4 (ix)
   000E 01 0C BC      [10]   92 	ld	bc,#0xbc00+12
   0011 ED 49         [12]   93 	out	(c),c
   0013 04            [ 4]   94 	inc	b
   0014 ED 61         [12]   95 	out	(c),h
   0016 05            [ 4]   96 	dec	b
   0017 0C            [ 4]   97 	inc	c
   0018 ED 49         [12]   98 	out	(c),c
   001A 04            [ 4]   99 	inc	b
   001B ED 69         [12]  100 	out	(c),l
   001D DD E1         [14]  101 	pop	ix
   001F C9            [10]  102 	ret
   0020                     103 _g_items_0:
   0020 05                  104 	.db #0x05	; 5
   0021 0F                  105 	.db #0x0f	; 15
   0022 0F                  106 	.db #0x0f	; 15
   0023 00                  107 	.db #0x00	; 0
   0024 0F                  108 	.db #0x0f	; 15
   0025 0F                  109 	.db #0x0f	; 15
   0026 0F                  110 	.db #0x0f	; 15
   0027 0A                  111 	.db #0x0a	; 10
   0028 0F                  112 	.db #0x0f	; 15
   0029 0A                  113 	.db #0x0a	; 10
   002A 05                  114 	.db #0x05	; 5
   002B 00                  115 	.db #0x00	; 0
   002C 0F                  116 	.db #0x0f	; 15
   002D 0A                  117 	.db #0x0a	; 10
   002E 05                  118 	.db #0x05	; 5
   002F 00                  119 	.db #0x00	; 0
   0030 05                  120 	.db #0x05	; 5
   0031 0F                  121 	.db #0x0f	; 15
   0032 0A                  122 	.db #0x0a	; 10
   0033 0A                  123 	.db #0x0a	; 10
   0034 00                  124 	.db #0x00	; 0
   0035 0F                  125 	.db #0x0f	; 15
   0036 0F                  126 	.db #0x0f	; 15
   0037 0A                  127 	.db #0x0a	; 10
   0038 00                  128 	.db #0x00	; 0
   0039 0A                  129 	.db #0x0a	; 10
   003A 0A                  130 	.db #0x0a	; 10
   003B 0A                  131 	.db #0x0a	; 10
   003C 00                  132 	.db #0x00	; 0
   003D 00                  133 	.db #0x00	; 0
   003E 00                  134 	.db #0x00	; 0
   003F 00                  135 	.db #0x00	; 0
                            136 ;src/main.c:73: void myInterruptHandler() {
                            137 ;	---------------------------------
                            138 ; Function myInterruptHandler
                            139 ; ---------------------------------
   0040                     140 _myInterruptHandler::
                            141 ;src/main.c:76: intCounter=intCounter+1;
   0040 FD 21r00r00   [14]  142 	ld	iy, #_intCounter
   0044 FD 34 00      [23]  143 	inc	0 (iy)
                            144 ;src/main.c:77: if (intCounter == 6) intCounter=0;
   0047 FD 7E 00      [19]  145 	ld	a, 0 (iy)
   004A D6 06         [ 7]  146 	sub	a, #0x06
   004C 20 04         [12]  147 	jr	NZ,00102$
   004E FD 36 00 00   [19]  148 	ld	0 (iy), #0x00
   0052                     149 00102$:
                            150 ;src/main.c:79: if (intCounter == 2) {
   0052 3Ar00r00      [13]  151 	ld	a,(#_intCounter + 0)
   0055 D6 02         [ 7]  152 	sub	a, #0x02
   0057 20 09         [12]  153 	jr	NZ,00104$
                            154 ;src/main.c:80: cpct_setBorder(2);
   0059 21 10 02      [10]  155 	ld	hl, #0x0210
   005C E5            [11]  156 	push	hl
   005D CDr00r00      [17]  157 	call	_cpct_setPALColour
   0060 18 07         [12]  158 	jr	00105$
   0062                     159 00104$:
                            160 ;src/main.c:82: cpct_setBorder(3);
   0062 21 10 03      [10]  161 	ld	hl, #0x0310
   0065 E5            [11]  162 	push	hl
   0066 CDr00r00      [17]  163 	call	_cpct_setPALColour
   0069                     164 00105$:
                            165 ;src/main.c:85: if (intCounter==5) {
   0069 FD 21r00r00   [14]  166 	ld	iy, #_intCounter
   006D FD 7E 00      [19]  167 	ld	a, 0 (iy)
   0070 D6 05         [ 7]  168 	sub	a, #0x05
   0072 20 1D         [12]  169 	jr	NZ,00107$
                            170 ;src/main.c:91: __endasm;
   0074 01 06 BC      [10]  171 	ld	bc,#0xbc06
   0077 ED 49         [12]  172 	out	(c),c
   0079 01 04 BD      [10]  173 	ld	bc,#0xbd04
   007C ED 49         [12]  174 	out	(c),c
                            175 ;src/main.c:93: crtc(screen_location);
   007E 2Ar00r00      [16]  176 	ld	hl, (_screen_location)
   0081 E5            [11]  177 	push	hl
   0082 CDr00r00      [17]  178 	call	_crtc
   0085 F1            [10]  179 	pop	af
                            180 ;src/main.c:95: killVBL();
   0086 CDr00r00      [17]  181 	call	_killVBL
                            182 ;src/main.c:96: rupture(19-1);
   0089 3E 12         [ 7]  183 	ld	a, #0x12
   008B F5            [11]  184 	push	af
   008C 33            [ 6]  185 	inc	sp
   008D CDr00r00      [17]  186 	call	_rupture
   0090 33            [ 6]  187 	inc	sp
   0091                     188 00107$:
                            189 ;src/main.c:100: if (intCounter==2) {
   0091 FD 21r00r00   [14]  190 	ld	iy, #_intCounter
   0095 FD 7E 00      [19]  191 	ld	a, 0 (iy)
   0098 D6 02         [ 7]  192 	sub	a, #0x02
   009A 20 1C         [12]  193 	jr	NZ,00109$
                            194 ;src/main.c:106: __endasm;
   009C 01 06 BC      [10]  195 	ld	bc,#0xbc06
   009F ED 49         [12]  196 	out	(c),c
   00A1 01 19 BD      [10]  197 	ld	bc,#0xbd19
   00A4 ED 49         [12]  198 	out	(c),c
                            199 ;src/main.c:107: cpct_setVideoMemoryPage(cpct_pageC0);
   00A6 2E 30         [ 7]  200 	ld	l, #0x30
   00A8 CDr00r00      [17]  201 	call	_cpct_setVideoMemoryPage
                            202 ;src/main.c:108: cpct_setVideoMemoryOffset(0);
   00AB 2E 00         [ 7]  203 	ld	l, #0x00
   00AD CDr00r00      [17]  204 	call	_cpct_setVideoMemoryOffset
                            205 ;src/main.c:109: rupture(7);
   00B0 3E 07         [ 7]  206 	ld	a, #0x07
   00B2 F5            [11]  207 	push	af
   00B3 33            [ 6]  208 	inc	sp
   00B4 CDr00r00      [17]  209 	call	_rupture
   00B7 33            [ 6]  210 	inc	sp
   00B8                     211 00109$:
                            212 ;src/main.c:112: if (intCounter==3) {
   00B8 3Ar00r00      [13]  213 	ld	a,(#_intCounter + 0)
   00BB D6 03         [ 7]  214 	sub	a, #0x03
   00BD 20 15         [12]  215 	jr	NZ,00111$
                            216 ;src/main.c:113: cpct_setVideoMemoryPage(cpct_pageC0);
   00BF 2E 30         [ 7]  217 	ld	l, #0x30
   00C1 CDr00r00      [17]  218 	call	_cpct_setVideoMemoryPage
                            219 ;src/main.c:114: cpct_setVideoMemoryOffset(0);
   00C4 2E 00         [ 7]  220 	ld	l, #0x00
   00C6 CDr00r00      [17]  221 	call	_cpct_setVideoMemoryOffset
                            222 ;src/main.c:115: restoreVBL();
   00C9 CDr00r00      [17]  223 	call	_restoreVBL
                            224 ;src/main.c:116: rupture(39-19-7+1);
   00CC 3E 0E         [ 7]  225 	ld	a, #0x0e
   00CE F5            [11]  226 	push	af
   00CF 33            [ 6]  227 	inc	sp
   00D0 CDr00r00      [17]  228 	call	_rupture
   00D3 33            [ 6]  229 	inc	sp
   00D4                     230 00111$:
                            231 ;src/main.c:120: if (intCounter==4) {
   00D4 3Ar00r00      [13]  232 	ld	a,(#_intCounter + 0)
   00D7 D6 04         [ 7]  233 	sub	a, #0x04
   00D9 C0            [11]  234 	ret	NZ
                            235 ;src/main.c:121: bank7_C000();
   00DA CDr00r00      [17]  236 	call	_bank7_C000
                            237 ;src/main.c:122: akp_musicPlay();
   00DD CDr00r00      [17]  238 	call	_akp_musicPlay
                            239 ;src/main.c:123: bank0123();
   00E0 CDr00r00      [17]  240 	call	_bank0123
   00E3 C9            [10]  241 	ret
                            242 ;src/main.c:130: void main(void) {
                            243 ;	---------------------------------
                            244 ; Function main
                            245 ; ---------------------------------
   00E4                     246 _main::
                            247 ;src/main.c:134: u8* sprite=g_items_0;
                            248 ;src/main.c:137: bank7_C000();
   00E4 CDr00r00      [17]  249 	call	_bank7_C000
                            250 ;src/main.c:138: akp_musicInit();
   00E7 CDr00r00      [17]  251 	call	_akp_musicInit
                            252 ;src/main.c:139: bank0123();
   00EA CDr00r00      [17]  253 	call	_bank0123
                            254 ;src/main.c:142: cpct_disableFirmware();
   00ED CDr00r00      [17]  255 	call	_cpct_disableFirmware
                            256 ;src/main.c:143: cpct_memcpy(0x6000,0x8000,0x2000);// la pile peut etre négative...
   00F0 21 00 20      [10]  257 	ld	hl, #0x2000
   00F3 E5            [11]  258 	push	hl
   00F4 26 80         [ 7]  259 	ld	h, #0x80
   00F6 E5            [11]  260 	push	hl
   00F7 26 60         [ 7]  261 	ld	h, #0x60
   00F9 E5            [11]  262 	push	hl
   00FA CDr00r00      [17]  263 	call	_cpct_memcpy
                            264 ;src/main.c:144: cpct_setStackLocation(0x6000);
   00FD 21 00 60      [10]  265 	ld	hl, #0x6000
   0100 CDr00r00      [17]  266 	call	_cpct_setStackLocation
                            267 ;src/main.c:145: cpct_memset_f64(0x8000, 0xFFFF, 0x4000);
   0103 21 00 40      [10]  268 	ld	hl, #0x4000
   0106 E5            [11]  269 	push	hl
   0107 21 FF FF      [10]  270 	ld	hl, #0xffff
   010A E5            [11]  271 	push	hl
   010B 21 00 80      [10]  272 	ld	hl, #0x8000
   010E E5            [11]  273 	push	hl
   010F CDr00r00      [17]  274 	call	_cpct_memset_f64
                            275 ;src/main.c:147: bank0123();
   0112 CDr00r00      [17]  276 	call	_bank0123
                            277 ;src/main.c:148: cpct_setVideoMode(0);
   0115 2E 00         [ 7]  278 	ld	l, #0x00
   0117 CDr00r00      [17]  279 	call	_cpct_setVideoMode
                            280 ;src/main.c:149: cpct_setBorder(HW_BLACK);
   011A 21 10 14      [10]  281 	ld	hl, #0x1410
   011D E5            [11]  282 	push	hl
   011E CDr00r00      [17]  283 	call	_cpct_setPALColour
                            284 ;src/main.c:150: cpct_setPalette(g_tile_palette, 6);
   0121 21 06 00      [10]  285 	ld	hl, #0x0006
   0124 E5            [11]  286 	push	hl
   0125 21r00r00      [10]  287 	ld	hl, #_g_tile_palette
   0128 E5            [11]  288 	push	hl
   0129 CDr00r00      [17]  289 	call	_cpct_setPalette
                            290 ;src/main.c:153: p = cpct_getScreenPtr(CPCT_VMEM_START, 9,110);
   012C 21 09 6E      [10]  291 	ld	hl, #0x6e09
   012F E5            [11]  292 	push	hl
   0130 21 00 C0      [10]  293 	ld	hl, #0xc000
   0133 E5            [11]  294 	push	hl
   0134 CDr00r00      [17]  295 	call	_cpct_getScreenPtr
                            296 ;src/main.c:154: cpct_hflipSpriteM0(4, 8, sprite);
   0137 01r20r00      [10]  297 	ld	bc, #_g_items_0
   013A E5            [11]  298 	push	hl
   013B C5            [11]  299 	push	bc
   013C C5            [11]  300 	push	bc
   013D 11 04 08      [10]  301 	ld	de, #0x0804
   0140 D5            [11]  302 	push	de
   0141 CDr00r00      [17]  303 	call	_cpct_hflipSpriteM0
   0144 C1            [10]  304 	pop	bc
   0145 E1            [10]  305 	pop	hl
                            306 ;src/main.c:155: cpct_drawSprite(sprite, p, 4, 8);
   0146 11 04 08      [10]  307 	ld	de, #0x0804
   0149 D5            [11]  308 	push	de
   014A E5            [11]  309 	push	hl
   014B C5            [11]  310 	push	bc
   014C CDr00r00      [17]  311 	call	_cpct_drawSprite
                            312 ;src/main.c:158: p = cpct_getScreenPtr(CPCT_VMEM_START, 10,96);
   014F 21 0A 60      [10]  313 	ld	hl, #0x600a
   0152 E5            [11]  314 	push	hl
   0153 21 00 C0      [10]  315 	ld	hl, #0xc000
   0156 E5            [11]  316 	push	hl
   0157 CDr00r00      [17]  317 	call	_cpct_getScreenPtr
                            318 ;src/main.c:159: cpct_drawSpriteMasked(g_tile_schtroumpf, p, G_TILE_SCHTROUMPF_W, G_TILE_SCHTROUMPF_H);
   015A 01r00r00      [10]  319 	ld	bc, #_g_tile_schtroumpf+0
   015D 11 10 20      [10]  320 	ld	de, #0x2010
   0160 D5            [11]  321 	push	de
   0161 E5            [11]  322 	push	hl
   0162 C5            [11]  323 	push	bc
   0163 CDr00r00      [17]  324 	call	_cpct_drawSpriteMasked
                            325 ;src/main.c:161: calque8000();
   0166 CDr00r00      [17]  326 	call	_calque8000
                            327 ;src/main.c:162: calqueC000();
   0169 CDr00r00      [17]  328 	call	_calqueC000
                            329 ;src/main.c:164: screen_location=(u8 *)(0x2000);
   016C 21 00 20      [10]  330 	ld	hl, #0x2000
   016F 22r00r00      [16]  331 	ld	(_screen_location), hl
                            332 ;src/main.c:165: screen_plot_address=(u8 *)(0x8000+80-2);
   0172 21 4E 80      [10]  333 	ld	hl, #0x804e
   0175 22r02r00      [16]  334 	ld	(_screen_plot_address), hl
                            335 ;src/main.c:170: while (1) {
   0178 01 00 00      [10]  336 	ld	bc, #0x0000
   017B                     337 00104$:
                            338 ;src/main.c:171: cpct_waitVSYNC();
   017B C5            [11]  339 	push	bc
   017C CDr00r00      [17]  340 	call	_cpct_waitVSYNC
   017F C1            [10]  341 	pop	bc
                            342 ;src/main.c:173: screen_location++;
   0180 FD 21r00r00   [14]  343 	ld	iy, #_screen_location
   0184 FD 34 00      [23]  344 	inc	0 (iy)
   0187 20 03         [12]  345 	jr	NZ,00116$
   0189 FD 34 01      [23]  346 	inc	1 (iy)
   018C                     347 00116$:
                            348 ;src/main.c:174: screen_location=(u8 *)(((u16)screen_location) & 0x23FF);
   018C 2Ar00r00      [16]  349 	ld	hl, (_screen_location)
   018F 7C            [ 4]  350 	ld	a, h
   0190 E6 23         [ 7]  351 	and	a, #0x23
   0192 67            [ 4]  352 	ld	h, a
   0193 22r00r00      [16]  353 	ld	(_screen_location), hl
                            354 ;src/main.c:175: screen_plot_address+=2;
   0196 21r02r00      [10]  355 	ld	hl, #_screen_plot_address
   0199 7E            [ 7]  356 	ld	a, (hl)
   019A C6 02         [ 7]  357 	add	a, #0x02
   019C 77            [ 7]  358 	ld	(hl), a
   019D 23            [ 6]  359 	inc	hl
   019E 7E            [ 7]  360 	ld	a, (hl)
   019F CE 00         [ 7]  361 	adc	a, #0x00
   01A1 77            [ 7]  362 	ld	(hl), a
                            363 ;src/main.c:176: screen_plot_address=(u8 *)(((u16)screen_plot_address) & 0x87FF);
   01A2 2Ar02r00      [16]  364 	ld	hl, (_screen_plot_address)
   01A5 7C            [ 4]  365 	ld	a, h
   01A6 E6 87         [ 7]  366 	and	a, #0x87
   01A8 67            [ 4]  367 	ld	h, a
   01A9 22r02r00      [16]  368 	ld	(_screen_plot_address), hl
                            369 ;src/main.c:182: scroll_hard(t,screen_plot_address);
   01AC C5            [11]  370 	push	bc
   01AD 2Ar02r00      [16]  371 	ld	hl, (_screen_plot_address)
   01B0 E5            [11]  372 	push	hl
   01B1 C5            [11]  373 	push	bc
   01B2 CDr00r00      [17]  374 	call	_scroll_hard
   01B5 F1            [10]  375 	pop	af
   01B6 F1            [10]  376 	pop	af
   01B7 C1            [10]  377 	pop	bc
                            378 ;src/main.c:184: t=t+1;
   01B8 03            [ 6]  379 	inc	bc
                            380 ;src/main.c:187: cpct_scanKeyboard_f();
   01B9 C5            [11]  381 	push	bc
   01BA CDr00r00      [17]  382 	call	_cpct_scanKeyboard_f
   01BD CDr00r00      [17]  383 	call	_cpct_isAnyKeyPressed_f
   01C0 C1            [10]  384 	pop	bc
   01C1 7D            [ 4]  385 	ld	a, l
   01C2 B7            [ 4]  386 	or	a, a
   01C3 28 B6         [12]  387 	jr	Z,00104$
                            388 ;src/main.c:189: cpct_memset_f64(0xC000, 0x0000, 0x4000);
   01C5 C5            [11]  389 	push	bc
   01C6 21 00 40      [10]  390 	ld	hl, #0x4000
   01C9 E5            [11]  391 	push	hl
   01CA 26 00         [ 7]  392 	ld	h, #0x00
   01CC E5            [11]  393 	push	hl
   01CD 26 C0         [ 7]  394 	ld	h, #0xc0
   01CF E5            [11]  395 	push	hl
   01D0 CDr00r00      [17]  396 	call	_cpct_memset_f64
   01D3 C1            [10]  397 	pop	bc
   01D4 18 A5         [12]  398 	jr	00104$
                            399 	.area _CODE
                            400 	.area _INITIALIZER
   0000                     401 __xinit__intCounter:
   0000 00                  402 	.db #0x00	; 0
                            403 	.area _CABS (ABS)
