                              1 ;--------------------------------------------------------
                              2 ; File Created by SDCC : free open source ANSI-C Compiler
                              3 ; Version 3.6.8 #9946 (Linux)
                              4 ;--------------------------------------------------------
                              5 	.module main
                              6 	.optsdcc -mz80
                              7 	
                              8 ;--------------------------------------------------------
                              9 ; Public variables in this module
                             10 ;--------------------------------------------------------
                             11 	.globl _main
                             12 	.globl _myInterruptHandler
                             13 	.globl _bank4_4000
                             14 	.globl _bank0123
                             15 	.globl _calque4000
                             16 	.globl _calqueC000
                             17 	.globl _akp_sfxPlay
                             18 	.globl _akp_musicPlay
                             19 	.globl _akp_musicInit
                             20 	.globl _scroll
                             21 	.globl _cpct_restoreState_mxor_u8
                             22 	.globl _cpct_setSeed_mxor
                             23 	.globl _cpct_getScreenPtr
                             24 	.globl _cpct_setVideoMemoryOffset
                             25 	.globl _cpct_setPALColour
                             26 	.globl _cpct_setPalette
                             27 	.globl _cpct_setVideoMode
                             28 	.globl _cpct_hflipSpriteM0
                             29 	.globl _cpct_drawSolidBox
                             30 	.globl _cpct_drawSpriteMasked
                             31 	.globl _cpct_drawSprite
                             32 	.globl _cpct_px2byteM0
                             33 	.globl _cpct_isKeyPressed
                             34 	.globl _cpct_scanKeyboard_f
                             35 	.globl _cpct_memset_f64
                             36 	.globl _cpct_memset
                             37 	.globl _cpct_setInterruptHandler
                             38 	.globl _cpct_disableFirmware
                             39 	.globl _g_items_0
                             40 ;--------------------------------------------------------
                             41 ; special function registers
                             42 ;--------------------------------------------------------
                             43 ;--------------------------------------------------------
                             44 ; ram data
                             45 ;--------------------------------------------------------
                             46 	.area _DATA
   0000                      47 _myInterruptHandler_i_1_81:
   0000                      48 	.ds 1
                             49 ;--------------------------------------------------------
                             50 ; ram data
                             51 ;--------------------------------------------------------
                             52 	.area _INITIALIZED
                             53 ;--------------------------------------------------------
                             54 ; absolute external ram data
                             55 ;--------------------------------------------------------
                             56 	.area _DABS (ABS)
                             57 ;--------------------------------------------------------
                             58 ; global & static initialisations
                             59 ;--------------------------------------------------------
                             60 	.area _HOME
                             61 	.area _GSINIT
                             62 	.area _GSFINAL
                             63 	.area _GSINIT
                             64 ;--------------------------------------------------------
                             65 ; Home
                             66 ;--------------------------------------------------------
                             67 	.area _HOME
                             68 	.area _HOME
                             69 ;--------------------------------------------------------
                             70 ; code
                             71 ;--------------------------------------------------------
                             72 	.area _CODE
                             73 ;src/main.c:43: void myInterruptHandler() {
                             74 ;	---------------------------------
                             75 ; Function myInterruptHandler
                             76 ; ---------------------------------
   0000                      77 _myInterruptHandler::
                             78 ;src/main.c:47: cpct_setBorder(i+1);
   0000 21r00r00      [10]   79 	ld	hl,#_myInterruptHandler_i_1_81 + 0
   0003 46            [ 7]   80 	ld	b, (hl)
   0004 04            [ 4]   81 	inc	b
   0005 C5            [11]   82 	push	bc
   0006 33            [ 6]   83 	inc	sp
   0007 3E 10         [ 7]   84 	ld	a, #0x10
   0009 F5            [11]   85 	push	af
   000A 33            [ 6]   86 	inc	sp
   000B CDr00r00      [17]   87 	call	_cpct_setPALColour
                             88 ;src/main.c:48: if (++i > 5) i=0;
   000E FD 21r00r00   [14]   89 	ld	iy, #_myInterruptHandler_i_1_81
   0012 FD 34 00      [23]   90 	inc	0 (iy)
   0015 3E 05         [ 7]   91 	ld	a, #0x05
   0017 FD 96 00      [19]   92 	sub	a, 0 (iy)
   001A 30 04         [12]   93 	jr	NC,00102$
   001C FD 36 00 00   [19]   94 	ld	0 (iy), #0x00
   0020                      95 00102$:
                             96 ;src/main.c:51: if (i==2) {
   0020 3Ar00r00      [13]   97 	ld	a,(#_myInterruptHandler_i_1_81 + 0)
   0023 D6 02         [ 7]   98 	sub	a, #0x02
   0025 C0            [11]   99 	ret	NZ
                            100 ;src/main.c:52: akp_musicPlay();
   0026 CDr00r00      [17]  101 	call	_akp_musicPlay
   0029 C9            [10]  102 	ret
   002A                     103 _g_items_0:
   002A 05                  104 	.db #0x05	; 5
   002B 0F                  105 	.db #0x0f	; 15
   002C 0F                  106 	.db #0x0f	; 15
   002D 00                  107 	.db #0x00	; 0
   002E 0F                  108 	.db #0x0f	; 15
   002F 0F                  109 	.db #0x0f	; 15
   0030 0F                  110 	.db #0x0f	; 15
   0031 0A                  111 	.db #0x0a	; 10
   0032 0F                  112 	.db #0x0f	; 15
   0033 0A                  113 	.db #0x0a	; 10
   0034 05                  114 	.db #0x05	; 5
   0035 00                  115 	.db #0x00	; 0
   0036 0F                  116 	.db #0x0f	; 15
   0037 0A                  117 	.db #0x0a	; 10
   0038 05                  118 	.db #0x05	; 5
   0039 00                  119 	.db #0x00	; 0
   003A 05                  120 	.db #0x05	; 5
   003B 0F                  121 	.db #0x0f	; 15
   003C 0A                  122 	.db #0x0a	; 10
   003D 0A                  123 	.db #0x0a	; 10
   003E 00                  124 	.db #0x00	; 0
   003F 0F                  125 	.db #0x0f	; 15
   0040 0F                  126 	.db #0x0f	; 15
   0041 0A                  127 	.db #0x0a	; 10
   0042 00                  128 	.db #0x00	; 0
   0043 0A                  129 	.db #0x0a	; 10
   0044 0A                  130 	.db #0x0a	; 10
   0045 0A                  131 	.db #0x0a	; 10
   0046 00                  132 	.db #0x00	; 0
   0047 00                  133 	.db #0x00	; 0
   0048 00                  134 	.db #0x00	; 0
   0049 00                  135 	.db #0x00	; 0
                            136 ;src/main.c:57: void main(void) {
                            137 ;	---------------------------------
                            138 ; Function main
                            139 ; ---------------------------------
   004A                     140 _main::
                            141 ;src/main.c:60: u8* sprite=g_items_0;
                            142 ;src/main.c:69: cpct_disableFirmware();
   004A CDr00r00      [17]  143 	call	_cpct_disableFirmware
                            144 ;src/main.c:73: bank4_4000();
   004D CDr00r00      [17]  145 	call	_bank4_4000
                            146 ;src/main.c:74: bank0123();
   0050 CDr00r00      [17]  147 	call	_bank0123
                            148 ;src/main.c:75: calqueC000();
   0053 CDr00r00      [17]  149 	call	_calqueC000
                            150 ;src/main.c:78: cpct_setVideoMode(0);
   0056 2E 00         [ 7]  151 	ld	l, #0x00
   0058 CDr00r00      [17]  152 	call	_cpct_setVideoMode
                            153 ;src/main.c:81: cpct_setBorder(HW_BLACK);
   005B 21 10 14      [10]  154 	ld	hl, #0x1410
   005E E5            [11]  155 	push	hl
   005F CDr00r00      [17]  156 	call	_cpct_setPALColour
                            157 ;src/main.c:82: cpct_setPalette(g_tile_palette, 6);
   0062 21 06 00      [10]  158 	ld	hl, #0x0006
   0065 E5            [11]  159 	push	hl
   0066 21r00r00      [10]  160 	ld	hl, #_g_tile_palette
   0069 E5            [11]  161 	push	hl
   006A CDr00r00      [17]  162 	call	_cpct_setPalette
                            163 ;src/main.c:83: cpct_memset(CPCT_VMEM_START, 0, 0x4000);
   006D 21 00 40      [10]  164 	ld	hl, #0x4000
   0070 E5            [11]  165 	push	hl
   0071 AF            [ 4]  166 	xor	a, a
   0072 F5            [11]  167 	push	af
   0073 33            [ 6]  168 	inc	sp
   0074 26 C0         [ 7]  169 	ld	h, #0xc0
   0076 E5            [11]  170 	push	hl
   0077 CDr00r00      [17]  171 	call	_cpct_memset
                            172 ;src/main.c:86: cpct_setVideoMemoryOffset(3);
   007A 2E 03         [ 7]  173 	ld	l, #0x03
   007C CDr00r00      [17]  174 	call	_cpct_setVideoMemoryOffset
                            175 ;src/main.c:89: p = cpct_getScreenPtr(CPCT_VMEM_START, 16-1,16-1);
   007F 21 0F 0F      [10]  176 	ld	hl, #0x0f0f
   0082 E5            [11]  177 	push	hl
   0083 21 00 C0      [10]  178 	ld	hl, #0xc000
   0086 E5            [11]  179 	push	hl
   0087 CDr00r00      [17]  180 	call	_cpct_getScreenPtr
                            181 ;src/main.c:90: cpct_drawSprite(sprite, p, 4, 8);
   008A E5            [11]  182 	push	hl
   008B 01 04 08      [10]  183 	ld	bc, #0x0804
   008E C5            [11]  184 	push	bc
   008F E5            [11]  185 	push	hl
   0090 01r2Ar00      [10]  186 	ld	bc, #_g_items_0
   0093 C5            [11]  187 	push	bc
   0094 CDr00r00      [17]  188 	call	_cpct_drawSprite
   0097 01 00 20      [10]  189 	ld	bc, #0x2000
   009A C5            [11]  190 	push	bc
   009B 01 FF FF      [10]  191 	ld	bc, #0xffff
   009E C5            [11]  192 	push	bc
   009F 01 00 C0      [10]  193 	ld	bc, #0xc000
   00A2 C5            [11]  194 	push	bc
   00A3 CDr00r00      [17]  195 	call	_cpct_memset_f64
   00A6 01r2Ar00      [10]  196 	ld	bc, #_g_items_0
   00A9 C5            [11]  197 	push	bc
   00AA 01 04 08      [10]  198 	ld	bc, #0x0804
   00AD C5            [11]  199 	push	bc
   00AE CDr00r00      [17]  200 	call	_cpct_hflipSpriteM0
   00B1 E1            [10]  201 	pop	hl
                            202 ;src/main.c:98: cpct_drawSprite(sprite, p, 4, 8);
   00B2 01 04 08      [10]  203 	ld	bc, #0x0804
   00B5 C5            [11]  204 	push	bc
   00B6 E5            [11]  205 	push	hl
   00B7 21r2Ar00      [10]  206 	ld	hl, #_g_items_0
   00BA E5            [11]  207 	push	hl
   00BB CDr00r00      [17]  208 	call	_cpct_drawSprite
                            209 ;src/main.c:100: p = cpct_getScreenPtr(CPCT_VMEM_START, 16-1,32-1);
   00BE 21 0F 1F      [10]  210 	ld	hl, #0x1f0f
   00C1 E5            [11]  211 	push	hl
   00C2 21 00 C0      [10]  212 	ld	hl, #0xc000
   00C5 E5            [11]  213 	push	hl
   00C6 CDr00r00      [17]  214 	call	_cpct_getScreenPtr
                            215 ;src/main.c:102: cpct_drawSolidBox(p, cpct_px2byteM0(2, 3), 10, 20);
   00C9 E5            [11]  216 	push	hl
   00CA 21 02 03      [10]  217 	ld	hl, #0x0302
   00CD E5            [11]  218 	push	hl
   00CE CDr00r00      [17]  219 	call	_cpct_px2byteM0
   00D1 55            [ 4]  220 	ld	d, l
   00D2 C1            [10]  221 	pop	bc
   00D3 21 0A 14      [10]  222 	ld	hl, #0x140a
   00D6 E5            [11]  223 	push	hl
   00D7 D5            [11]  224 	push	de
   00D8 33            [ 6]  225 	inc	sp
   00D9 C5            [11]  226 	push	bc
   00DA CDr00r00      [17]  227 	call	_cpct_drawSolidBox
   00DD F1            [10]  228 	pop	af
                            229 ;src/main.c:105: p = cpct_getScreenPtr(CPCT_VMEM_START, 10-1,80-1);
   00DE 33            [ 6]  230 	inc	sp
   00DF 21 09 4F      [10]  231 	ld	hl,#0x4f09
   00E2 E3            [19]  232 	ex	(sp),hl
   00E3 21 00 C0      [10]  233 	ld	hl, #0xc000
   00E6 E5            [11]  234 	push	hl
   00E7 CDr00r00      [17]  235 	call	_cpct_getScreenPtr
                            236 ;src/main.c:106: cpct_drawSpriteMasked(g_tile_schtroumpf, p, G_TILE_SCHTROUMPF_W, G_TILE_SCHTROUMPF_H);
   00EA 01r00r00      [10]  237 	ld	bc, #_g_tile_schtroumpf+0
   00ED 11 10 20      [10]  238 	ld	de, #0x2010
   00F0 D5            [11]  239 	push	de
   00F1 E5            [11]  240 	push	hl
   00F2 C5            [11]  241 	push	bc
   00F3 CDr00r00      [17]  242 	call	_cpct_drawSpriteMasked
                            243 ;src/main.c:108: p = cpct_getScreenPtr(CPCT_VMEM_START, 10-1,120-1);
   00F6 21 09 77      [10]  244 	ld	hl, #0x7709
   00F9 E5            [11]  245 	push	hl
   00FA 21 00 C0      [10]  246 	ld	hl, #0xc000
   00FD E5            [11]  247 	push	hl
   00FE CDr00r00      [17]  248 	call	_cpct_getScreenPtr
                            249 ;src/main.c:109: cpct_drawSprite(g_tile_fontmap20x22_00, p, G_TILE_FONTMAP20X22_00_W, G_TILE_FONTMAP20X22_00_H);
   0101 01r00r00      [10]  250 	ld	bc, #_g_tile_fontmap20x22_00+0
   0104 11 0A 16      [10]  251 	ld	de, #0x160a
   0107 D5            [11]  252 	push	de
   0108 E5            [11]  253 	push	hl
   0109 C5            [11]  254 	push	bc
   010A CDr00r00      [17]  255 	call	_cpct_drawSprite
                            256 ;src/main.c:120: cpct_srand(77);
   010D 21 4D 00      [10]  257 	ld	hl,#0x004d
   0110 11 00 00      [10]  258 	ld	de,#0x0000
   0113 CDr00r00      [17]  259 	call	_cpct_setSeed_mxor
   0116 CDr00r00      [17]  260 	call	_cpct_restoreState_mxor_u8
                            261 ;src/main.c:124: cpct_scanKeyboard_f();
   0119 CDr00r00      [17]  262 	call	_cpct_scanKeyboard_f
                            263 ;src/main.c:125: t=0;
   011C 01 00 00      [10]  264 	ld	bc, #0x0000
                            265 ;src/main.c:126: while (!cpct_isKeyPressed(Key_Enter) && !cpct_isKeyPressed(Key_Return)){
   011F                     266 00104$:
   011F C5            [11]  267 	push	bc
   0120 21 00 40      [10]  268 	ld	hl, #0x4000
   0123 CDr00r00      [17]  269 	call	_cpct_isKeyPressed
   0126 C1            [10]  270 	pop	bc
   0127 7D            [ 4]  271 	ld	a, l
   0128 B7            [ 4]  272 	or	a, a
   0129 20 32         [12]  273 	jr	NZ,00106$
   012B C5            [11]  274 	push	bc
   012C 21 02 04      [10]  275 	ld	hl, #0x0402
   012F CDr00r00      [17]  276 	call	_cpct_isKeyPressed
   0132 C1            [10]  277 	pop	bc
   0133 7D            [ 4]  278 	ld	a, l
   0134 B7            [ 4]  279 	or	a, a
   0135 20 26         [12]  280 	jr	NZ,00106$
                            281 ;src/main.c:127: scroll(" ABRUTI ", 8, t);
   0137 C5            [11]  282 	push	bc
   0138 C5            [11]  283 	push	bc
   0139 21 08 00      [10]  284 	ld	hl, #0x0008
   013C E5            [11]  285 	push	hl
   013D 21r80r01      [10]  286 	ld	hl, #___str_0
   0140 E5            [11]  287 	push	hl
   0141 CDr00r00      [17]  288 	call	_scroll
   0144 21 06 00      [10]  289 	ld	hl, #6
   0147 39            [11]  290 	add	hl, sp
   0148 F9            [ 6]  291 	ld	sp, hl
   0149 C1            [10]  292 	pop	bc
                            293 ;src/main.c:128: t=t+1;
   014A 03            [ 6]  294 	inc	bc
                            295 ;src/main.c:129: if (t>160) {t=0;}
   014B 3E A0         [ 7]  296 	ld	a, #0xa0
   014D B9            [ 4]  297 	cp	a, c
   014E 3E 00         [ 7]  298 	ld	a, #0x00
   0150 98            [ 4]  299 	sbc	a, b
   0151 30 03         [12]  300 	jr	NC,00102$
   0153 01 00 00      [10]  301 	ld	bc, #0x0000
   0156                     302 00102$:
                            303 ;src/main.c:130: cpct_scanKeyboard_f();
   0156 C5            [11]  304 	push	bc
   0157 CDr00r00      [17]  305 	call	_cpct_scanKeyboard_f
   015A C1            [10]  306 	pop	bc
   015B 18 C2         [12]  307 	jr	00104$
   015D                     308 00106$:
                            309 ;src/main.c:134: akp_musicInit();
   015D CDr00r00      [17]  310 	call	_akp_musicInit
                            311 ;src/main.c:138: cpct_setVideoMemoryOffset(0);
   0160 2E 00         [ 7]  312 	ld	l, #0x00
   0162 CDr00r00      [17]  313 	call	_cpct_setVideoMemoryOffset
                            314 ;src/main.c:139: calque4000();
   0165 CDr00r00      [17]  315 	call	_calque4000
                            316 ;src/main.c:141: cpct_setInterruptHandler(myInterruptHandler);
   0168 21r00r00      [10]  317 	ld	hl, #_myInterruptHandler
   016B CDr00r00      [17]  318 	call	_cpct_setInterruptHandler
                            319 ;src/main.c:142: while (1) {
   016E                     320 00110$:
                            321 ;src/main.c:143: cpct_scanKeyboard_f();
   016E CDr00r00      [17]  322 	call	_cpct_scanKeyboard_f
                            323 ;src/main.c:144: if (cpct_isKeyPressed(Key_Space)) {
   0171 21 05 80      [10]  324 	ld	hl, #0x8005
   0174 CDr00r00      [17]  325 	call	_cpct_isKeyPressed
   0177 7D            [ 4]  326 	ld	a, l
   0178 B7            [ 4]  327 	or	a, a
   0179 28 F3         [12]  328 	jr	Z,00110$
                            329 ;src/main.c:145: akp_sfxPlay();
   017B CDr00r00      [17]  330 	call	_akp_sfxPlay
   017E 18 EE         [12]  331 	jr	00110$
   0180                     332 ___str_0:
   0180 20 41 42 52 55 54   333 	.ascii " ABRUTI "
        49 20
   0188 00                  334 	.db 0x00
                            335 	.area _CODE
                            336 	.area _INITIALIZER
                            337 	.area _CABS (ABS)
